target datalayout = "e-m:e-p270:32:32-p271:32:32-p272:64:64-i64:64-i128:128-f80:128-n8:16:32:64-S128"
target triple = "x86_64-pc-linux-gnu"

%"class.std::__cxx11::basic_string" = type { %"struct.std::__cxx11::basic_string<char>::_Alloc_hider", i64, %union.anon }
%"struct.std::__cxx11::basic_string<char>::_Alloc_hider" = type { ptr }
%union.anon = type { i64, [8 x i8] }
%"class.absl::time_internal::cctz::time_zone" = type { ptr }
%"class.absl::time_internal::cctz::time_zone::Impl" = type { %"class.std::__cxx11::basic_string", %"class.std::unique_ptr" }
%"class.std::unique_ptr" = type { %"struct.std::__uniq_ptr_data" }
%"struct.std::__uniq_ptr_data" = type { %"class.std::__uniq_ptr_impl" }
%"class.std::__uniq_ptr_impl" = type { %"class.std::tuple" }
%"class.std::tuple" = type { %"struct.std::_Tuple_impl" }
%"struct.std::_Tuple_impl" = type { %"struct.std::_Head_base.1" }
%"struct.std::_Head_base.1" = type { ptr }
%"struct.absl::time_internal::cctz::time_zone::civil_lookup" = type { i32, %"class.std::chrono::time_point", %"class.std::chrono::time_point", %"class.std::chrono::time_point" }
%"class.std::chrono::time_point" = type { %"class.std::chrono::duration" }
%"class.std::chrono::duration" = type { i64 }

; Function Attrs: mustprogress nounwind uwtable
define linkonce_odr dso_local noundef nonnull align 8 dereferenceable(8) ptr @_ZNSt10_Head_baseILm0EPN4absl13time_internal4cctz10TimeZoneIfELb0EE7_M_headERKS5_(ptr noundef nonnull align 8 dereferenceable(8) %0) #1 comdat align 2 {
  %2 = alloca ptr, align 8
  store ptr %0, ptr %2, align 8, !tbaa !40
  %3 = load ptr, ptr %2, align 8, !tbaa !40
  %4 = getelementptr inbounds nuw %"struct.std::_Head_base.1", ptr %3, i32 0, i32 0
  ret ptr %4
}

; Function Attrs: mustprogress nounwind uwtable
define linkonce_odr dso_local noundef nonnull align 8 dereferenceable(8) ptr @_ZNSt11_Tuple_implILm0EJPN4absl13time_internal4cctz10TimeZoneIfESt14default_deleteIS3_EEE7_M_headERKS7_(ptr noundef nonnull align 8 dereferenceable(8) %0) #1 comdat align 2 {
  %2 = alloca ptr, align 8
  store ptr %0, ptr %2, align 8, !tbaa !38
  %3 = load ptr, ptr %2, align 8, !tbaa !38
  %4 = call noundef nonnull align 8 dereferenceable(8) ptr @_ZNSt10_Head_baseILm0EPN4absl13time_internal4cctz10TimeZoneIfELb0EE7_M_headERKS5_(ptr noundef nonnull align 8 dereferenceable(8) %3) #13
  ret ptr %4
}

; Function Attrs: mustprogress nounwind uwtable
define linkonce_odr dso_local noundef nonnull align 8 dereferenceable(8) ptr @_ZSt12__get_helperILm0EPN4absl13time_internal4cctz10TimeZoneIfEJSt14default_deleteIS3_EEERKT0_RKSt11_Tuple_implIXT_EJS7_DpT1_EE(ptr noundef nonnull align 8 dereferenceable(8) %0) #1 comdat {
  %2 = alloca ptr, align 8
  store ptr %0, ptr %2, align 8, !tbaa !38
  %3 = load ptr, ptr %2, align 8, !tbaa !38
  %4 = call noundef nonnull align 8 dereferenceable(8) ptr @_ZNSt11_Tuple_implILm0EJPN4absl13time_internal4cctz10TimeZoneIfESt14default_deleteIS3_EEE7_M_headERKS7_(ptr noundef nonnull align 8 dereferenceable(8) %3) #13
  ret ptr %4
}

; Function Attrs: mustprogress nounwind uwtable
define linkonce_odr dso_local noundef nonnull align 8 dereferenceable(8) ptr @_ZSt3getILm0EJPN4absl13time_internal4cctz10TimeZoneIfESt14default_deleteIS3_EEERKNSt13tuple_elementIXT_ESt5tupleIJDpT0_EEE4typeERKSB_(ptr noundef nonnull align 8 dereferenceable(8) %0) #1 comdat {
  %2 = alloca ptr, align 8
  store ptr %0, ptr %2, align 8, !tbaa !36
  %3 = load ptr, ptr %2, align 8, !tbaa !36
  %4 = call noundef nonnull align 8 dereferenceable(8) ptr @_ZSt12__get_helperILm0EPN4absl13time_internal4cctz10TimeZoneIfEJSt14default_deleteIS3_EEERKT0_RKSt11_Tuple_implIXT_EJS7_DpT1_EE(ptr noundef nonnull align 8 dereferenceable(8) %3) #13
  ret ptr %4
}

; Function Attrs: mustprogress nounwind uwtable
define linkonce_odr dso_local noundef ptr @_ZNKSt15__uniq_ptr_implIN4absl13time_internal4cctz10TimeZoneIfESt14default_deleteIS3_EE6_M_ptrEv(ptr noundef nonnull align 8 dereferenceable(8) %0) #1 comdat align 2 {
  %2 = alloca ptr, align 8
  store ptr %0, ptr %2, align 8, !tbaa !32
  %3 = load ptr, ptr %2, align 8
  %4 = getelementptr inbounds nuw %"class.std::__uniq_ptr_impl", ptr %3, i32 0, i32 0
  %5 = call noundef nonnull align 8 dereferenceable(8) ptr @_ZSt3getILm0EJPN4absl13time_internal4cctz10TimeZoneIfESt14default_deleteIS3_EEERKNSt13tuple_elementIXT_ESt5tupleIJDpT0_EEE4typeERKSB_(ptr noundef nonnull align 8 dereferenceable(8) %4) #13
  %6 = load ptr, ptr %5, align 8, !tbaa !34
  ret ptr %6
}

; Function Attrs: mustprogress nounwind uwtable
define linkonce_odr dso_local noundef ptr @_ZNKSt10unique_ptrIN4absl13time_internal4cctz10TimeZoneIfESt14default_deleteIS3_EE3getEv(ptr noundef nonnull align 8 dereferenceable(8) %0) #1 comdat align 2 {
  %2 = alloca ptr, align 8
  store ptr %0, ptr %2, align 8, !tbaa !30
  %3 = load ptr, ptr %2, align 8
  %4 = getelementptr inbounds nuw %"class.std::unique_ptr", ptr %3, i32 0, i32 0
  %5 = call noundef ptr @_ZNKSt15__uniq_ptr_implIN4absl13time_internal4cctz10TimeZoneIfESt14default_deleteIS3_EE6_M_ptrEv(ptr noundef nonnull align 8 dereferenceable(8) %4) #13
  ret ptr %5
}

; Function Attrs: mustprogress nounwind uwtable
define linkonce_odr dso_local noundef ptr @_ZNKSt10unique_ptrIN4absl13time_internal4cctz10TimeZoneIfESt14default_deleteIS3_EEptEv(ptr noundef nonnull align 8 dereferenceable(8) %0) #1 comdat align 2 {
  %2 = alloca ptr, align 8
  store ptr %0, ptr %2, align 8, !tbaa !30
  %3 = load ptr, ptr %2, align 8
  %4 = call noundef ptr @_ZNKSt10unique_ptrIN4absl13time_internal4cctz10TimeZoneIfESt14default_deleteIS3_EE3getEv(ptr noundef nonnull align 8 dereferenceable(8) %3) #13
  ret ptr %4
}

; Function Attrs: mustprogress uwtable
define linkonce_odr dso_local void @_ZNK4absl13time_internal4cctz9time_zone4Impl8MakeTimeERKNS1_6detail10civil_timeINS4_10second_tagEEE(ptr dead_on_unwind noalias writable sret(%"struct.absl::time_internal::cctz::time_zone::civil_lookup") align 8 %0, ptr noundef nonnull align 8 dereferenceable(40) %1, ptr noundef nonnull align 8 dereferenceable(16) %2) #0 comdat align 2 {
  %4 = alloca ptr, align 8
  %5 = alloca ptr, align 8
  store ptr %1, ptr %4, align 8, !tbaa !12
  store ptr %2, ptr %5, align 8, !tbaa !19
  %6 = load ptr, ptr %4, align 8
  %7 = getelementptr inbounds nuw %"class.absl::time_internal::cctz::time_zone::Impl", ptr %6, i32 0, i32 1
  %8 = call noundef ptr @_ZNKSt10unique_ptrIN4absl13time_internal4cctz10TimeZoneIfESt14default_deleteIS3_EEptEv(ptr noundef nonnull align 8 dereferenceable(8) %7) #13
  %9 = load ptr, ptr %5, align 8, !tbaa !19
  %10 = load ptr, ptr %8, align 8, !tbaa !17
  %11 = getelementptr inbounds ptr, ptr %10, i64 3
  %12 = load ptr, ptr %11, align 8
  call void %12(ptr dead_on_unwind writable sret(%"struct.absl::time_internal::cctz::time_zone::civil_lookup") align 8 %0, ptr noundef nonnull align 8 dereferenceable(8) %8, ptr noundef nonnull align 8 dereferenceable(16) %9)
  ret void
}

; Function Attrs: mustprogress uwtable
define dso_local noundef nonnull align 8 dereferenceable(40) ptr @_ZNK4absl13time_internal4cctz9time_zone14effective_implEv(ptr noundef nonnull align 8 dereferenceable(8) %0) #0 align 2 {
  %2 = alloca ptr, align 8
  %3 = alloca ptr, align 8
  %4 = alloca %"class.absl::time_internal::cctz::time_zone", align 8
  store ptr %0, ptr %3, align 8, !tbaa !4
  %5 = load ptr, ptr %3, align 8
  %6 = getelementptr inbounds nuw %"class.absl::time_internal::cctz::time_zone", ptr %5, i32 0, i32 0
  %7 = load ptr, ptr %6, align 8, !tbaa !9
  %8 = icmp eq ptr %7, null
  br i1 %8, label %9, label %14

9:                                                ; preds = %1
  call void @llvm.lifetime.start.p0(i64 8, ptr %4) #13
  %10 = call ptr @_ZN4absl13time_internal4cctz9time_zone4Impl3UTCEv()
  %11 = getelementptr inbounds nuw %"class.absl::time_internal::cctz::time_zone", ptr %4, i32 0, i32 0
  store ptr %10, ptr %11, align 8
  %12 = getelementptr inbounds nuw %"class.absl::time_internal::cctz::time_zone", ptr %4, i32 0, i32 0
  %13 = load ptr, ptr %12, align 8, !tbaa !9
  store ptr %13, ptr %2, align 8
  call void @llvm.lifetime.end.p0(i64 8, ptr %4) #13
  br label %17

14:                                               ; preds = %1
  %15 = getelementptr inbounds nuw %"class.absl::time_internal::cctz::time_zone", ptr %5, i32 0, i32 0
  %16 = load ptr, ptr %15, align 8, !tbaa !9
  store ptr %16, ptr %2, align 8
  br label %17

17:                                               ; preds = %14, %9
  %18 = load ptr, ptr %2, align 8
  ret ptr %18
}

; Function Attrs: mustprogress uwtable
define dso_local void @_ZNK4absl13time_internal4cctz9time_zone6lookupERKNS1_6detail10civil_timeINS3_10second_tagEEE(ptr dead_on_unwind noalias writable sret(%"struct.absl::time_internal::cctz::time_zone::civil_lookup") align 8 %0, ptr noundef nonnull align 8 dereferenceable(8) %1, ptr noundef nonnull align 8 dereferenceable(16) %2) #0 align 2 {
  %4 = alloca ptr, align 8
  %5 = alloca ptr, align 8
  store ptr %1, ptr %4, align 8, !tbaa !4
  store ptr %2, ptr %5, align 8, !tbaa !19
  %6 = load ptr, ptr %4, align 8
  %7 = call noundef nonnull align 8 dereferenceable(40) ptr @_ZNK4absl13time_internal4cctz9time_zone14effective_implEv(ptr noundef nonnull align 8 dereferenceable(8) %6)
  %8 = load ptr, ptr %5, align 8, !tbaa !19
  call void @_ZNK4absl13time_internal4cctz9time_zone4Impl8MakeTimeERKNS1_6detail10civil_timeINS4_10second_tagEEE(ptr dead_on_unwind writable sret(%"struct.absl::time_internal::cctz::time_zone::civil_lookup") align 8 %0, ptr noundef nonnull align 8 dereferenceable(40) %7, ptr noundef nonnull align 8 dereferenceable(16) %8)
  ret void
}